target datalayout = "e-m:e-p270:32:32-p271:32:32-p272:64:64-i64:64-i128:128-f80:128-n8:16:32:64-S128"
target triple = "x86_64-pc-linux-gnu"

%struct.ByteswapImpl.72 = type { i8 }

; Function Attrs: mustprogress nounwind uwtable
define internal noundef i64 @_ZL14alignment_maskImTnNSt9enable_ifIXcvbsr3std11is_integralIT_EE5valueEiE4typeELi0EES1_S1_(i64 noundef %0) #1 {
  %2 = alloca i64, align 8
  store i64 %0, ptr %2, align 8
  %3 = load i64, ptr %2, align 8
  %4 = sub i64 %3, 1
  ret i64 %4
}

; Function Attrs: mustprogress nounwind uwtable
define linkonce_odr hidden noundef zeroext i1 @_Z10is_alignedImmTnNSt9enable_ifIXcvbsr3std11is_integralIT_EE5valueEiE4typeELi0EEbS1_T0_(i64 noundef %0, i64 noundef %1) #1 comdat {
  %3 = alloca i64, align 8
  %4 = alloca i64, align 8
  store i64 %0, ptr %3, align 8
  store i64 %1, ptr %4, align 8
  %5 = load i64, ptr %3, align 8
  %6 = load i64, ptr %4, align 8
  %7 = call noundef i64 @_ZL14alignment_maskImTnNSt9enable_ifIXcvbsr3std11is_integralIT_EE5valueEiE4typeELi0EES1_S1_(i64 noundef %6)
  %8 = and i64 %5, %7
  %9 = icmp eq i64 %8, 0
  ret i1 %9
}

; Function Attrs: mustprogress nounwind uwtable
define linkonce_odr hidden noundef zeroext i16 @_ZNK12ByteswapImplItLm2EEclEt(ptr noundef nonnull align 1 dereferenceable(1) %0, i16 noundef zeroext %1) #1 comdat align 2 {
  %3 = alloca ptr, align 8
  %4 = alloca i16, align 2
  store ptr %0, ptr %3, align 8
  store i16 %1, ptr %4, align 2
  %5 = load i16, ptr %4, align 2
  %6 = call i16 @llvm.bswap.i16(i16 %5)
  ret i16 %6
}

; Function Attrs: mustprogress nounwind uwtable
define linkonce_odr hidden noundef zeroext i1 @_Z10is_alignedIKvmEbPT_T0_(ptr noundef %0, i64 noundef %1) #1 comdat {
  %3 = alloca ptr, align 8
  %4 = alloca i64, align 8
  store ptr %0, ptr %3, align 8
  store i64 %1, ptr %4, align 8
  %5 = load ptr, ptr %3, align 8
  %6 = ptrtoint ptr %5 to i64
  %7 = load i64, ptr %4, align 8
  %8 = call noundef zeroext i1 @_Z10is_alignedImmTnNSt9enable_ifIXcvbsr3std11is_integralIT_EE5valueEiE4typeELi0EEbS1_T0_(i64 noundef %6, i64 noundef %7)
  ret i1 %8
}

; Function Attrs: mustprogress nounwind uwtable
define linkonce_odr hidden noundef zeroext i16 @_Z8byteswapItTnNSt9enable_ifIXcvbsr3std11is_integralIT_EE5valueEiE4typeELi0EES1_S1_(i16 noundef zeroext %0) #1 comdat {
  %2 = alloca i16, align 2
  %3 = alloca %struct.ByteswapImpl.72, align 1
  store i16 %0, ptr %2, align 2
  %4 = load i16, ptr %2, align 2
  %5 = call noundef zeroext i16 @_ZNK12ByteswapImplItLm2EEclEt(ptr noundef nonnull align 1 dereferenceable(1) %3, i16 noundef zeroext %4)
  ret i16 %5
}

; Function Attrs: mustprogress nounwind uwtable
define linkonce_odr hidden noundef zeroext i1 @_ZN6Endian31is_Java_byte_ordering_differentEv() #1 comdat align 2 {
  ret i1 true
}

; Function Attrs: mustprogress nounwind uwtable
define linkonce_odr hidden noundef zeroext i16 @_ZN5Bytes10get_nativeItEET_PKv(ptr noundef %0) #1 comdat align 2 {
  %2 = alloca ptr, align 8
  %3 = alloca i16, align 2
  store ptr %0, ptr %2, align 8
  %4 = load ptr, ptr %2, align 8
  %5 = call noundef zeroext i1 @_Z10is_alignedIKvmEbPT_T0_(ptr noundef %4, i64 noundef 2)
  br i1 %5, label %6, label %9

6:                                                ; preds = %1
  %7 = load ptr, ptr %2, align 8
  %8 = load i16, ptr %7, align 2
  store i16 %8, ptr %3, align 2
  br label %11

9:                                                ; preds = %1
  %10 = load ptr, ptr %2, align 8
  call void @llvm.memcpy.p0.p0.i64(ptr align 2 %3, ptr align 1 %10, i64 2, i1 false)
  br label %11

11:                                               ; preds = %9, %6
  %12 = load i16, ptr %3, align 2
  ret i16 %12
}

; Function Attrs: mustprogress nounwind uwtable
define linkonce_odr hidden noundef zeroext i16 @_ZN5Bytes8get_JavaItEET_Ph(ptr noundef %0) #1 comdat align 2 {
  %2 = alloca ptr, align 8
  %3 = alloca i16, align 2
  store ptr %0, ptr %2, align 8
  %4 = load ptr, ptr %2, align 8
  %5 = call noundef zeroext i16 @_ZN5Bytes10get_nativeItEET_PKv(ptr noundef %4)
  store i16 %5, ptr %3, align 2
  %6 = call noundef zeroext i1 @_ZN6Endian31is_Java_byte_ordering_differentEv()
  br i1 %6, label %7, label %10

7:                                                ; preds = %1
  %8 = load i16, ptr %3, align 2
  %9 = call noundef zeroext i16 @_Z8byteswapItTnNSt9enable_ifIXcvbsr3std11is_integralIT_EE5valueEiE4typeELi0EES1_S1_(i16 noundef zeroext %8)
  store i16 %9, ptr %3, align 2
  br label %10

10:                                               ; preds = %7, %1
  %11 = load i16, ptr %3, align 2
  ret i16 %11
}

; Function Attrs: mustprogress nounwind uwtable
define internal noundef i32 @_ZL15skip_annotationPKhii(ptr noundef %0, i32 noundef %1, i32 noundef %2) #1 {
  %4 = alloca i32, align 4
  %5 = alloca ptr, align 8
  %6 = alloca i32, align 4
  %7 = alloca i32, align 4
  %8 = alloca i32, align 4
  store ptr %0, ptr %5, align 8
  store i32 %1, ptr %6, align 4
  store i32 %2, ptr %7, align 4
  %9 = load i32, ptr %7, align 4
  %10 = load i32, ptr %6, align 4
  %11 = sub nsw i32 %10, 4
  %12 = icmp sge i32 %9, %11
  br i1 %12, label %13, label %15

13:                                               ; preds = %3
  %14 = load i32, ptr %6, align 4
  store i32 %14, ptr %4, align 4
  br label %51

15:                                               ; preds = %3
  %16 = load i32, ptr %7, align 4
  %17 = add nsw i32 %16, 4
  store i32 %17, ptr %7, align 4
  %18 = load ptr, ptr %5, align 8
  %19 = load i32, ptr %7, align 4
  %20 = sext i32 %19 to i64
  %21 = getelementptr inbounds i8, ptr %18, i64 %20
  %22 = getelementptr inbounds i8, ptr %21, i64 -2
  %23 = call noundef zeroext i16 @_ZN5Bytes11get_Java_u2EPh(ptr noundef %22)
  %24 = zext i16 %23 to i32
  store i32 %24, ptr %8, align 4
  br label %25

25:                                               ; preds = %42, %15
  %26 = load i32, ptr %8, align 4
  %27 = add nsw i32 %26, -1
  store i32 %27, ptr %8, align 4
  %28 = icmp sge i32 %27, 0
  br i1 %28, label %29, label %33

29:                                               ; preds = %25
  %30 = load i32, ptr %7, align 4
  %31 = load i32, ptr %6, align 4
  %32 = icmp slt i32 %30, %31
  br label %33

33:                                               ; preds = %29, %25
  %34 = phi i1 [ false, %25 ], [ %32, %29 ]
  br i1 %34, label %35, label %49

35:                                               ; preds = %33
  %36 = load i32, ptr %7, align 4
  %37 = load i32, ptr %6, align 4
  %38 = sub nsw i32 %37, 2
  %39 = icmp sge i32 %36, %38
  br i1 %39, label %40, label %42

40:                                               ; preds = %35
  %41 = load i32, ptr %6, align 4
  store i32 %41, ptr %4, align 4
  br label %51

42:                                               ; preds = %35
  %43 = load i32, ptr %7, align 4
  %44 = add nsw i32 %43, 2
  store i32 %44, ptr %7, align 4
  %45 = load ptr, ptr %5, align 8
  %46 = load i32, ptr %6, align 4
  %47 = load i32, ptr %7, align 4
  %48 = call noundef i32 @_ZL21skip_annotation_valuePKhii(ptr noundef %45, i32 noundef %46, i32 noundef %47)
  store i32 %48, ptr %7, align 4
  br label %25, !llvm.loop !78

49:                                               ; preds = %33
  %50 = load i32, ptr %7, align 4
  store i32 %50, ptr %4, align 4
  br label %51

51:                                               ; preds = %49, %40, %13
  %52 = load i32, ptr %4, align 4
  ret i32 %52
}

; Function Attrs: mustprogress nounwind uwtable
define linkonce_odr hidden noundef zeroext i16 @_ZN5Bytes11get_Java_u2EPh(ptr noundef %0) #1 comdat align 2 {
  %2 = alloca ptr, align 8
  store ptr %0, ptr %2, align 8
  %3 = load ptr, ptr %2, align 8
  %4 = call noundef zeroext i16 @_ZN5Bytes8get_JavaItEET_Ph(ptr noundef %3)
  ret i16 %4
}

; Function Attrs: mustprogress nounwind uwtable
define internal noundef i32 @_ZL21skip_annotation_valuePKhii(ptr noundef %0, i32 noundef %1, i32 noundef %2) #1 {
  %4 = alloca i32, align 4
  %5 = alloca ptr, align 8
  %6 = alloca i32, align 4
  %7 = alloca i32, align 4
  %8 = alloca i8, align 1
  %9 = alloca i32, align 4
  store ptr %0, ptr %5, align 8
  store i32 %1, ptr %6, align 4
  store i32 %2, ptr %7, align 4
  %10 = load i32, ptr %7, align 4
  %11 = load i32, ptr %6, align 4
  %12 = sub nsw i32 %11, 1
  %13 = icmp sge i32 %10, %12
  br i1 %13, label %14, label %16

14:                                               ; preds = %3
  %15 = load i32, ptr %6, align 4
  store i32 %15, ptr %4, align 4
  br label %89

16:                                               ; preds = %3
  %17 = load i32, ptr %7, align 4
  %18 = add nsw i32 %17, 1
  store i32 %18, ptr %7, align 4
  %19 = load ptr, ptr %5, align 8
  %20 = load i32, ptr %7, align 4
  %21 = sub nsw i32 %20, 1
  %22 = sext i32 %21 to i64
  %23 = getelementptr inbounds i8, ptr %19, i64 %22
  %24 = load i8, ptr %23, align 1
  store i8 %24, ptr %8, align 1
  %25 = load i8, ptr %8, align 1
  %26 = zext i8 %25 to i32
  switch i32 %26, label %85 [
    i32 66, label %27
    i32 67, label %27
    i32 73, label %27
    i32 83, label %27
    i32 90, label %27
    i32 68, label %27
    i32 70, label %27
    i32 74, label %27
    i32 99, label %27
    i32 115, label %27
    i32 101, label %37
    i32 91, label %47
    i32 64, label %80
  ]

27:                                               ; preds = %16, %16, %16, %16, %16, %16, %16, %16, %16, %16
  %28 = load i32, ptr %7, align 4
  %29 = load i32, ptr %6, align 4
  %30 = sub nsw i32 %29, 2
  %31 = icmp sge i32 %28, %30
  br i1 %31, label %32, label %34

32:                                               ; preds = %27
  %33 = load i32, ptr %6, align 4
  store i32 %33, ptr %4, align 4
  br label %89

34:                                               ; preds = %27
  %35 = load i32, ptr %7, align 4
  %36 = add nsw i32 %35, 2
  store i32 %36, ptr %7, align 4
  br label %87

37:                                               ; preds = %16
  %38 = load i32, ptr %7, align 4
  %39 = load i32, ptr %6, align 4
  %40 = sub nsw i32 %39, 4
  %41 = icmp sge i32 %38, %40
  br i1 %41, label %42, label %44

42:                                               ; preds = %37
  %43 = load i32, ptr %6, align 4
  store i32 %43, ptr %4, align 4
  br label %89

44:                                               ; preds = %37
  %45 = load i32, ptr %7, align 4
  %46 = add nsw i32 %45, 4
  store i32 %46, ptr %7, align 4
  br label %87

47:                                               ; preds = %16
  %48 = load i32, ptr %7, align 4
  %49 = load i32, ptr %6, align 4
  %50 = sub nsw i32 %49, 2
  %51 = icmp sge i32 %48, %50
  br i1 %51, label %52, label %54

52:                                               ; preds = %47
  %53 = load i32, ptr %6, align 4
  store i32 %53, ptr %4, align 4
  br label %89

54:                                               ; preds = %47
  %55 = load i32, ptr %7, align 4
  %56 = add nsw i32 %55, 2
  store i32 %56, ptr %7, align 4
  %57 = load ptr, ptr %5, align 8
  %58 = load i32, ptr %7, align 4
  %59 = sext i32 %58 to i64
  %60 = getelementptr inbounds i8, ptr %57, i64 %59
  %61 = getelementptr inbounds i8, ptr %60, i64 -2
  %62 = call noundef zeroext i16 @_ZN5Bytes11get_Java_u2EPh(ptr noundef %61)
  %63 = zext i16 %62 to i32
  store i32 %63, ptr %9, align 4
  br label %64

64:                                               ; preds = %74, %54
  %65 = load i32, ptr %9, align 4
  %66 = add nsw i32 %65, -1
  store i32 %66, ptr %9, align 4
  %67 = icmp sge i32 %66, 0
  br i1 %67, label %68, label %72

68:                                               ; preds = %64
  %69 = load i32, ptr %7, align 4
  %70 = load i32, ptr %6, align 4
  %71 = icmp slt i32 %69, %70
  br label %72

72:                                               ; preds = %68, %64
  %73 = phi i1 [ false, %64 ], [ %71, %68 ]
  br i1 %73, label %74, label %79

74:                                               ; preds = %72
  %75 = load ptr, ptr %5, align 8
  %76 = load i32, ptr %6, align 4
  %77 = load i32, ptr %7, align 4
  %78 = call noundef i32 @_ZL21skip_annotation_valuePKhii(ptr noundef %75, i32 noundef %76, i32 noundef %77)
  store i32 %78, ptr %7, align 4
  br label %64, !llvm.loop !79

79:                                               ; preds = %72
  br label %87

80:                                               ; preds = %16
  %81 = load ptr, ptr %5, align 8
  %82 = load i32, ptr %6, align 4
  %83 = load i32, ptr %7, align 4
  %84 = call noundef i32 @_ZL15skip_annotationPKhii(ptr noundef %81, i32 noundef %82, i32 noundef %83)
  store i32 %84, ptr %7, align 4
  br label %87

85:                                               ; preds = %16
  %86 = load i32, ptr %6, align 4
  store i32 %86, ptr %4, align 4
  br label %89

87:                                               ; preds = %80, %79, %44, %34
  %88 = load i32, ptr %7, align 4
  store i32 %88, ptr %4, align 4
  br label %89

89:                                               ; preds = %87, %85, %52, %42, %32, %14
  %90 = load i32, ptr %4, align 4
  ret i32 %90
}