; Function Attrs: mustprogress nofree nosync nounwind willreturn memory(argmem: read) uwtable
define internal fastcc noundef range(i32 3, -2147483648) i32 @_ZL21skip_annotation_valuePKhii(ptr noundef %0, i32 noundef %1, i32 noundef %2) unnamed_addr #17 {
  %4 = add nsw i32 %1, -1
  %.not = icmp sgt i32 %4, %2
  br i1 %.not, label %5, label %_ZL15skip_annotationPKhii.exit

5:                                                ; preds = %3
  %6 = add nuw nsw i32 %2, 1
  %7 = zext nneg i32 %2 to i64
  %8 = getelementptr inbounds i8, ptr %0, i64 %7
  %9 = load i8, ptr %8, align 1
  switch i8 %9, label %_ZL15skip_annotationPKhii.exit [
    i8 66, label %10
    i8 67, label %10
    i8 73, label %10
    i8 83, label %10
    i8 90, label %10
    i8 68, label %10
    i8 70, label %10
    i8 74, label %10
    i8 99, label %10
    i8 115, label %10
    i8 101, label %13
    i8 91, label %16
    i8 64, label %33
  ]

10:                                               ; preds = %5, %5, %5, %5, %5, %5, %5, %5, %5, %5
  %11 = add nsw i32 %1, -2
  %.not41 = icmp slt i32 %6, %11
  %12 = add nuw nsw i32 %2, 3
  %spec.select = select i1 %.not41, i32 %12, i32 %1
  br label %_ZL15skip_annotationPKhii.exit

13:                                               ; preds = %5
  %14 = add nsw i32 %1, -4
  %.not40 = icmp slt i32 %6, %14
  %15 = add nuw nsw i32 %2, 5
  %spec.select42 = select i1 %.not40, i32 %15, i32 %1
  br label %_ZL15skip_annotationPKhii.exit

16:                                               ; preds = %5
  %17 = add nsw i32 %1, -2
  %.not39 = icmp slt i32 %6, %17
  br i1 %.not39, label %18, label %_ZL15skip_annotationPKhii.exit

18:                                               ; preds = %16
  %19 = add nuw nsw i32 %2, 3
  %20 = zext nneg i32 %19 to i64
  %21 = getelementptr inbounds i8, ptr %0, i64 %20
  %22 = getelementptr inbounds i8, ptr %21, i64 -2
  %.0.i.i.i = load i16, ptr %22, align 1
  %23 = icmp ne i16 %.0.i.i.i, 0
  %24 = icmp slt i32 %19, %1
  %25 = and i1 %24, %23
  br i1 %25, label %.lr.ph49.preheader, label %_ZL15skip_annotationPKhii.exit

.lr.ph49.preheader:                               ; preds = %18
  %26 = tail call noundef i16 @llvm.bswap.i16(i16 %.0.i.i.i)
  %27 = zext i16 %26 to i32
  br label %.lr.ph49

.lr.ph49:                                         ; preds = %.lr.ph49.preheader, %.lr.ph49
  %.048 = phi i32 [ %28, %.lr.ph49 ], [ %27, %.lr.ph49.preheader ]
  %.03347 = phi i32 [ %29, %.lr.ph49 ], [ %19, %.lr.ph49.preheader ]
  %28 = add nsw i32 %.048, -1
  %29 = tail call fastcc noundef i32 @_ZL21skip_annotation_valuePKhii(ptr noundef %0, i32 noundef %1, i32 noundef %.03347)
  %30 = icmp ugt i32 %.048, 1
  %31 = icmp slt i32 %29, %1
  %32 = and i1 %31, %30
  br i1 %32, label %.lr.ph49, label %_ZL15skip_annotationPKhii.exit, !llvm.loop !84

33:                                               ; preds = %5
  %34 = add nsw i32 %1, -4
  %.not.i = icmp sgt i32 %34, %6
  br i1 %.not.i, label %35, label %_ZL15skip_annotationPKhii.exit

35:                                               ; preds = %33
  %36 = add nuw nsw i32 %2, 5
  %37 = zext nneg i32 %36 to i64
  %38 = getelementptr inbounds i8, ptr %0, i64 %37
  %39 = getelementptr inbounds i8, ptr %38, i64 -2
  %.0.i.i.i.i = load i16, ptr %39, align 1
  %40 = add nsw i32 %1, -2
  %41 = icmp ne i16 %.0.i.i.i.i, 0
  %42 = icmp slt i32 %36, %1
  %43 = and i1 %42, %41
  br i1 %43, label %.lr.ph.preheader, label %_ZL15skip_annotationPKhii.exit

.lr.ph.preheader:                                 ; preds = %35
  %44 = tail call noundef i16 @llvm.bswap.i16(i16 %.0.i.i.i.i)
  %45 = zext i16 %44 to i32
  br label %.lr.ph

.lr.ph:                                           ; preds = %.lr.ph.preheader, %46
  %.in = phi i32 [ %47, %46 ], [ %45, %.lr.ph.preheader ]
  %.017.i44 = phi i32 [ %49, %46 ], [ %36, %.lr.ph.preheader ]
  %.not22.i = icmp slt i32 %.017.i44, %40
  br i1 %.not22.i, label %46, label %_ZL15skip_annotationPKhii.exit

46:                                               ; preds = %.lr.ph
  %47 = add nsw i32 %.in, -1
  %48 = add nuw nsw i32 %.017.i44, 2
  %49 = tail call fastcc noundef i32 @_ZL21skip_annotation_valuePKhii(ptr noundef %0, i32 noundef %1, i32 noundef %48)
  %50 = icmp sgt i32 %.in, 1
  %51 = icmp slt i32 %49, %1
  %52 = and i1 %51, %50
  br i1 %52, label %.lr.ph, label %_ZL15skip_annotationPKhii.exit, !llvm.loop !19

_ZL15skip_annotationPKhii.exit:                   ; preds = %46, %.lr.ph, %.lr.ph49, %35, %18, %33, %13, %10, %5, %16, %3
  %.032 = phi i32 [ %1, %3 ], [ %1, %16 ], [ %1, %5 ], [ %spec.select, %10 ], [ %spec.select42, %13 ], [ %1, %33 ], [ %19, %18 ], [ %36, %35 ], [ %29, %.lr.ph49 ], [ %49, %46 ], [ %1, %.lr.ph ]
  ret i32 %.032
}